target datalayout = "e-m:e-p270:32:32-p271:32:32-p272:64:64-i64:64-i128:128-f80:128-n8:16:32:64-S128"
target triple = "x86_64-unknown-linux-gnu"

%"struct.arrow::io::IOContext" = type { ptr, ptr, i64, %"class.arrow::StopToken" }
%"class.arrow::StopToken" = type { %"class.std::shared_ptr" }
%"class.std::shared_ptr" = type { %"class.std::__shared_ptr" }
%"class.std::__shared_ptr" = type { ptr, %"class.std::__shared_count" }
%"class.std::__shared_count" = type { ptr }

@_ZZN5arrow2io18default_io_contextEvE20g_default_io_context = internal global %"struct.arrow::io::IOContext" zeroinitializer, align 8
@_ZGVZN5arrow2io18default_io_contextEvE20g_default_io_context = internal global i64 0, align 8
@__dso_handle = external hidden global i8

; Function Attrs: mustprogress uwtable
define noundef nonnull align 8 dereferenceable(40) ptr @_ZN5arrow2io18default_io_contextEv() #0 personality ptr @__gxx_personality_v0 {
entry:
  %exn.slot = alloca ptr, align 8
  %ehselector.slot = alloca i32, align 4
  %0 = load atomic i8, ptr @_ZGVZN5arrow2io18default_io_contextEvE20g_default_io_context acquire, align 8
  %guard.uninitialized = icmp eq i8 %0, 0
  br i1 %guard.uninitialized, label %init.check, label %init.end, !prof !4

init.check:                                       ; preds = %entry
  %1 = call i32 @__cxa_guard_acquire(ptr @_ZGVZN5arrow2io18default_io_contextEvE20g_default_io_context) #2
  %tobool = icmp ne i32 %1, 0
  br i1 %tobool, label %init, label %init.end

init:                                             ; preds = %init.check
  invoke void @_ZN5arrow2io9IOContextC2Ev(ptr noundef nonnull align 8 dereferenceable(40) @_ZZN5arrow2io18default_io_contextEvE20g_default_io_context)
          to label %invoke.cont unwind label %lpad

invoke.cont:                                      ; preds = %init
  %2 = call i32 @__cxa_atexit(ptr @_ZN5arrow2io9IOContextD2Ev, ptr @_ZZN5arrow2io18default_io_contextEvE20g_default_io_context, ptr @__dso_handle) #2
  call void @__cxa_guard_release(ptr @_ZGVZN5arrow2io18default_io_contextEvE20g_default_io_context) #2
  br label %init.end

init.end:                                         ; preds = %invoke.cont, %init.check, %entry
  ret ptr @_ZZN5arrow2io18default_io_contextEvE20g_default_io_context

lpad:                                             ; preds = %init
  %3 = landingpad { ptr, i32 }
          cleanup
  %4 = extractvalue { ptr, i32 } %3, 0
  store ptr %4, ptr %exn.slot, align 8
  %5 = extractvalue { ptr, i32 } %3, 1
  store i32 %5, ptr %ehselector.slot, align 4
  call void @__cxa_guard_abort(ptr @_ZGVZN5arrow2io18default_io_contextEvE20g_default_io_context) #2
  br label %eh.resume

eh.resume:                                        ; preds = %lpad
  %exn = load ptr, ptr %exn.slot, align 8
  %sel = load i32, ptr %ehselector.slot, align 4
  %lpad.val = insertvalue { ptr, i32 } poison, ptr %exn, 0
  %lpad.val1 = insertvalue { ptr, i32 } %lpad.val, i32 %sel, 1
  resume { ptr, i32 } %lpad.val1
}