; Function Attrs: mustprogress uwtable
define noundef nonnull align 8 dereferenceable(40) ptr @_ZN5arrow2io18default_io_contextEv() local_unnamed_addr #0 personality ptr @__gxx_personality_v0 {
entry:
  %0 = load atomic i8, ptr @_ZGVZN5arrow2io18default_io_contextEvE20g_default_io_context acquire, align 8
  %guard.uninitialized = icmp eq i8 %0, 0
  br i1 %guard.uninitialized, label %init.check, label %init.end, !prof !4

init.check:                                       ; preds = %entry
  %1 = tail call i32 @__cxa_guard_acquire(ptr nonnull @_ZGVZN5arrow2io18default_io_contextEvE20g_default_io_context) #28
  %tobool.not = icmp eq i32 %1, 0
  br i1 %tobool.not, label %init.end, label %init

init:                                             ; preds = %init.check
  invoke void @_ZN5arrow2io9IOContextC2Ev(ptr noundef nonnull align 8 dereferenceable(40) @_ZZN5arrow2io18default_io_contextEvE20g_default_io_context)
          to label %invoke.cont unwind label %lpad

invoke.cont:                                      ; preds = %init
  %2 = tail call i32 @__cxa_atexit(ptr nonnull @_ZN5arrow2io9IOContextD2Ev, ptr nonnull @_ZZN5arrow2io18default_io_contextEvE20g_default_io_context, ptr nonnull @__dso_handle) #28
  tail call void @__cxa_guard_release(ptr nonnull @_ZGVZN5arrow2io18default_io_contextEvE20g_default_io_context) #28
  br label %init.end

init.end:                                         ; preds = %invoke.cont, %init.check, %entry
  ret ptr @_ZZN5arrow2io18default_io_contextEvE20g_default_io_context

lpad:                                             ; preds = %init
  %3 = landingpad { ptr, i32 }
          cleanup
  tail call void @__cxa_guard_abort(ptr nonnull @_ZGVZN5arrow2io18default_io_contextEvE20g_default_io_context) #28
  resume { ptr, i32 } %3
}